; Function Attrs: nounwind sspstrong uwtable
define hidden void @rb_class_remove_from_super_subclasses(i64 noundef %0) local_unnamed_addr #0 {
  %2 = inttoptr i64 %0 to ptr
  %3 = getelementptr inbounds nuw i8, ptr %2, i64 96
  %4 = load ptr, ptr %3, align 8, !tbaa !25
  %.not = icmp eq ptr %4, null
  br i1 %.not, label %16, label %5

5:                                                ; preds = %1
  %6 = getelementptr inbounds nuw i8, ptr %4, i64 16
  %7 = load ptr, ptr %6, align 8, !tbaa !24
  %8 = getelementptr inbounds nuw i8, ptr %4, i64 8
  %9 = load ptr, ptr %8, align 8, !tbaa !23
  %.not13 = icmp eq ptr %7, null
  br i1 %.not13, label %12, label %10

10:                                               ; preds = %5
  %11 = getelementptr inbounds nuw i8, ptr %7, i64 8
  store ptr %9, ptr %11, align 8, !tbaa !23
  br label %12

12:                                               ; preds = %10, %5
  %.not14 = icmp eq ptr %9, null
  br i1 %.not14, label %15, label %13

13:                                               ; preds = %12
  %14 = getelementptr inbounds nuw i8, ptr %9, i64 16
  store ptr %7, ptr %14, align 8, !tbaa !24
  br label %15

15:                                               ; preds = %13, %12
  tail call void @ruby_xfree(ptr noundef nonnull %4) #19
  br label %16

16:                                               ; preds = %15, %1
  store ptr null, ptr %3, align 8, !tbaa !25
  ret void
}